; Function Attrs: mustprogress nofree norecurse nosync nounwind memory(readwrite, inaccessiblemem: none) uwtable
define internal void @_ZN12_GLOBAL__N_121BytecodeFormConverterILN6hermes3hbc12BytecodeFormE0EE18processStringTableEv(ptr nocapture noundef nonnull readonly align 8 dereferenceable(288) %this) #12 align 2 {
entry:
  %stringTableEntries = getelementptr inbounds i8, ptr %this, i64 40
  %0 = load ptr, ptr %stringTableEntries, align 8
  %Length.i.i = getelementptr inbounds i8, ptr %this, i64 48
  %1 = load i64, ptr %Length.i.i, align 8
  %add.ptr.i = getelementptr inbounds %"struct.hermes::hbc::SmallStringTableEntry", ptr %0, i64 %1
  %cmp.not5 = icmp eq i64 %1, 0
  br i1 %cmp.not5, label %for.end, label %for.body

for.body:                                         ; preds = %entry, %for.body
  %__begin2.07 = phi ptr [ %incdec.ptr, %for.body ], [ %0, %entry ]
  %offsetAdj.sroa.0.06 = phi i32 [ %add.i, %for.body ], [ 0, %entry ]
  %bf.load = load i32, ptr %__begin2.07, align 1
  %bf.lshr = lshr i32 %bf.load, 1
  %add.i = add i32 %bf.lshr, %offsetAdj.sroa.0.06
  %bf.value = shl i32 %add.i, 1
  %bf.shl = and i32 %bf.value, 16777214
  %bf.clear6 = and i32 %bf.load, -16777215
  %bf.set = or disjoint i32 %bf.shl, %bf.clear6
  store i32 %bf.set, ptr %__begin2.07, align 1
  %incdec.ptr = getelementptr inbounds i8, ptr %__begin2.07, i64 4
  %cmp.not = icmp eq ptr %incdec.ptr, %add.ptr.i
  br i1 %cmp.not, label %for.end, label %for.body

for.end:                                          ; preds = %for.body, %entry
  ret void
}